(dp0
S'pk_movie'
p1
ccopy_reg
_reconstructor
p2
(cdrop
Drop
p3
c__builtin__
object
p4
Ntp5
Rp6
(dp7
S'hits'
p8
I0
sS'key'
p9
S'pk_movie'
p10
sS'last_accessed'
p11
I1420109431
sS'value'
p12
S'awesome'
p13
sS'expiry'
p14
I1420119431
sS'dependants'
p15
(lp16
sbs.