(dp0
S'pk_movie::pk_rating'
p1
ccopy_reg
_reconstructor
p2
(cReservoirDrop
Drop
p3
c__builtin__
object
p4
Ntp5
Rp6
(dp7
S'hits'
p8
I0
sS'dependants'
p9
(lp10
sS'parent_key'
p11
NsS'created'
p12
F1421904489.364066
sS'last_accessed'
p13
I1421904489
sS'value'
p14
S'8.8'
p15
sS'expiry'
p16
I1422004489
sS'key'
p17
g1
sS'type'
p18
NsbsVpk_director
p19
g2
(g3
g4
Ntp20
Rp21
(dp22
g8
I0
sg9
(lp23
sg11
Nsg12
F1427446905.851754
sS'buckets'
p24
(lp25
sg13
I1427446905
sg14
Vraj kumar hirani
p26
sg16
I0
sg17
Vpk_director
p27
sg18
NsbsS'pk_movie::pk_director'
p28
g2
(g3
g4
Ntp29
Rp30
(dp31
g8
I0
sg9
(lp32
sg11
Nsg12
F1421904472.492535
sg13
I1421904472
sg14
S'rajukumar hirani'
p33
sg16
I1422904472
sg17
g28
sg18
NsbsS'pk_key'
p34
g2
(g3
g4
Ntp35
Rp36
(dp37
g8
I0
sg9
(lp38
sg11
Nsg12
F1421904747.749786
sg13
I1421904747
sg14
S'desaj22d3'
p39
sg16
I1422004747
sg17
S'pk_key'
p40
sg18
S'ota'
p41
sbsS'pk_movie'
p42
g2
(g3
g4
Ntp43
Rp44
(dp45
g8
I101
sg9
(lp46
sg11
Nsg12
F1427446905.850752
sg24
(lp47
sg13
I1427872743
sg14
Vawesome
p48
sg16
I0
sg17
Vpk_movie
p49
sg18
NsbsS'pk_actor'
p50
g2
(g3
g4
Ntp51
Rp52
(dp53
g8
I91
sg9
(lp54
sg11
Nsg12
F1427446905.851609
sg24
(lp55
sg13
I1427872743
sg14
Vaamir khan
p56
sg16
I0
sg17
Vpk_actor
p57
sg18
NsbsS'pk_movie::pk_actor'
p58
g2
(g3
g4
Ntp59
Rp60
(dp61
g8
I0
sg9
(lp62
sg11
Nsg12
F1421904481.164362
sg13
I1421904481
sg14
S'aamir khan'
p63
sg16
I1422004481
sg17
g58
sg18
NsbsVpk_ratings
p64
g2
(g3
g4
Ntp65
Rp66
(dp67
g8
I1
sg9
(lp68
sg11
Vpk_movie
p69
sg12
F1425363129.77923
sg24
(lp70
sg13
I1425363153
sg14
V8.9
p71
sg16
I0
sg17
g64
sg18
NsbsVpk_votes
p72
g2
(g3
g4
Ntp73
Rp74
(dp75
g8
I0
sg9
(lp76
sg11
Nsg12
F1426832540.426974
sg24
(lp77
sg13
I1426832540
sg14
Nsg16
I1426832540
sg17
g72
sg18
Nsbs.