(dp0
S'pk_movie::pk_rating'
p1
ccopy_reg
_reconstructor
p2
(cReservoirDrop
Drop
p3
c__builtin__
object
p4
Ntp5
Rp6
(dp7
S'hits'
p8
I0
sS'dependants'
p9
(lp10
sS'parent_key'
p11
NsS'created'
p12
F1421904489.364066
sS'last_accessed'
p13
I1421904489
sS'value'
p14
S'8.8'
p15
sS'expiry'
p16
I1422004489
sS'key'
p17
g1
sS'type'
p18
NsbsS'pk_movie::pk_director'
p19
g2
(g3
g4
Ntp20
Rp21
(dp22
g8
I0
sg9
(lp23
sg11
Nsg12
F1421904472.492535
sg13
I1421904472
sg14
S'rajukumar hirani'
p24
sg16
I1422904472
sg17
g19
sg18
NsbsS'pk_key'
p25
g2
(g3
g4
Ntp26
Rp27
(dp28
g8
I0
sg9
(lp29
sg11
Nsg12
F1421904747.749786
sg13
I1421904747
sg14
S'desaj22d3'
p30
sg16
I1422004747
sg17
S'pk_key'
p31
sg18
S'ota'
p32
sbsS'pk_movie'
p33
g2
(g3
g4
Ntp34
Rp35
(dp36
g8
I1
sg9
(lp37
sg11
Nsg12
F1421904461.748687
sg13
I1421904729
sg14
S'awesome'
p38
sg16
I1431904461
sg17
S'pk_movie'
p39
sg18
NsbsS'pk_actor'
p40
g2
(g3
g4
Ntp41
Rp42
(dp43
g8
I1
sg9
(lp44
sg11
S'pk_movie'
p45
sg12
F1421577047.833692
sg13
I1421577051
sg14
S'aamir khan'
p46
sg16
I1421587047
sg17
g40
sbsS'pk_movie::pk_actor'
p47
g2
(g3
g4
Ntp48
Rp49
(dp50
g8
I0
sg9
(lp51
sg11
Nsg12
F1421904481.164362
sg13
I1421904481
sg14
S'aamir khan'
p52
sg16
I1422004481
sg17
g47
sg18
Nsbs.