(dp0
S'pk_actor'
p1
ccopy_reg
_reconstructor
p2
(cReservoirDrop
Drop
p3
c__builtin__
object
p4
Ntp5
Rp6
(dp7
S'hits'
p8
I1
sS'dependants'
p9
(lp10
sS'parent_key'
p11
S'pk_movie'
p12
sS'created'
p13
F1421577047.833692
sS'last_accessed'
p14
I1421577051
sS'value'
p15
S'aamir khan'
p16
sS'expiry'
p17
I1421587047
sS'key'
p18
g1
sbsS'pk_movie'
p19
g2
(g3
g4
Ntp20
Rp21
(dp22
g8
I1
sg9
(lp23
g1
asg11
Nsg13
F1421576933.868299
sg14
I1421576944
sg15
S'awesome'
p24
sg17
I1421577933
sg18
g19
sbs.