(dp0
S'pk_actress'
p1
ccopy_reg
_reconstructor
p2
(cdrop
Drop
p3
c__builtin__
object
p4
Ntp5
Rp6
(dp7
S'hits'
p8
I0
sS'dependants'
p9
(lp10
sS'parent_key'
p11
S'pk_movie'
p12
sS'last_accessed'
p13
I1420279906
sS'value'
p14
S'anuskha sharma'
p15
sS'expiry'
p16
I1420289906
sS'key'
p17
g1
sbsS'pk_director'
p18
g2
(g3
g4
Ntp19
Rp20
(dp21
g8
I0
sg9
(lp22
sg11
S'pk_movie'
p23
sg13
I1420279735
sg14
S'rajukumar hirani'
p24
sg16
I1420379735
sg17
S'pk_director'
p25
sbsS'pk_rating'
p26
g2
(g3
g4
Ntp27
Rp28
(dp29
g8
I0
sg9
(lp30
sg11
S'pk_movie'
p31
sg13
I1420279753
sg14
S'8.8'
p32
sg16
I1420289753
sg17
g26
sbsS'pk_movie'
p33
g2
(g3
g4
Ntp34
Rp35
(dp36
g8
I1
sg9
(lp37
g25
aS'pk_actor'
p38
ag26
ag1
asg11
Nsg13
I1420279810
sg14
S'awesome'
p39
sg16
I1420289714
sg17
S'pk_movie'
p40
sbsS'pk_actor'
p41
g2
(g3
g4
Ntp42
Rp43
(dp44
g8
I1
sg9
(lp45
sg11
S'pk_movie'
p46
sg13
I1420279820
sg14
S'aamir khan'
p47
sg16
I1420280743
sg17
g38
sbsS'pk_movie_rating'
p48
g2
(g3
g4
Ntp49
Rp50
(dp51
g8
I0
sg9
(lp52
sg11
S'pk_movie'
p53
sg13
I1420279451
sg14
S'8.8'
p54
sg16
I1420289451
sg17
g48
sbsS'pk_votes'
p55
g2
(g3
g4
Ntp56
Rp57
(dp58
g8
I1
sg9
(lp59
sg11
NsS'created'
p60
F1420615863.344638
sg13
I1420615877
sg14
I1
sg16
I1420625863
sg17
g55
sbs.