(dp0
S'pk_movie::pk_rating'
p1
ccopy_reg
_reconstructor
p2
(cReservoirDrop
Drop
p3
c__builtin__
object
p4
Ntp5
Rp6
(dp7
S'hits'
p8
I0
sS'dependants'
p9
(lp10
sS'parent_key'
p11
NsS'created'
p12
F1421904489.364066
sS'last_accessed'
p13
I1421904489
sS'value'
p14
S'8.8'
p15
sS'expiry'
p16
I1422004489
sS'key'
p17
g1
sS'type'
p18
NsbsVpk_director
p19
g2
(g3
g4
Ntp20
Rp21
(dp22
g8
I0
sg9
(lp23
sg11
Nsg12
F1426657928.283414
sS'buckets'
p24
(lp25
sg13
I1426657928
sg14
Nsg16
I0
sg17
Vpk_director
p26
sg18
NsbsS'pk_movie::pk_director'
p27
g2
(g3
g4
Ntp28
Rp29
(dp30
g8
I0
sg9
(lp31
sg11
Nsg12
F1421904472.492535
sg13
I1421904472
sg14
S'rajukumar hirani'
p32
sg16
I1422904472
sg17
g27
sg18
NsbsS'pk_key'
p33
g2
(g3
g4
Ntp34
Rp35
(dp36
g8
I0
sg9
(lp37
sg11
Nsg12
F1421904747.749786
sg13
I1421904747
sg14
S'desaj22d3'
p38
sg16
I1422004747
sg17
S'pk_key'
p39
sg18
S'ota'
p40
sbsS'pk_movie'
p41
g2
(g3
g4
Ntp42
Rp43
(dp44
g8
I0
sg9
(lp45
sg11
Nsg12
F1426657928.282421
sg24
(lp46
sg13
I1426657928
sg14
Vawesome
p47
sg16
I0
sg17
Vpk_movie
p48
sg18
NsbsS'pk_actor'
p49
g2
(g3
g4
Ntp50
Rp51
(dp52
g8
I0
sg9
(lp53
sg11
Nsg12
F1426657928.283309
sg24
(lp54
sg13
I1426657928
sg14
Nsg16
I0
sg17
Vpk_actor
p55
sg18
NsbsS'pk_movie::pk_actor'
p56
g2
(g3
g4
Ntp57
Rp58
(dp59
g8
I0
sg9
(lp60
sg11
Nsg12
F1421904481.164362
sg13
I1421904481
sg14
S'aamir khan'
p61
sg16
I1422004481
sg17
g56
sg18
NsbsVpk_ratings
p62
g2
(g3
g4
Ntp63
Rp64
(dp65
g8
I1
sg9
(lp66
sg11
Vpk_movie
p67
sg12
F1425363129.77923
sg24
(lp68
sg13
I1425363153
sg14
V8.9
p69
sg16
I0
sg17
g62
sg18
Nsbs.